; Function Attrs: nounwind uwtable
define internal fastcc ptr @lookup_proc(ptr noundef %0, i32 noundef %1, i1 noundef zeroext %2) unnamed_addr #0 {
  %4 = alloca ptr, align 8
  call void @llvm.lifetime.start.p0(i64 8, ptr nonnull %4) #17
  store ptr null, ptr %4, align 8, !tbaa !62
  %5 = getelementptr inbounds nuw i8, ptr %0, i64 56
  %6 = load ptr, ptr %5, align 8, !tbaa !3
  %.not.i = icmp eq ptr %6, null
  %7 = call i32 @pmix_hash_table_get_value_uint32(ptr noundef %0, i32 noundef %1, ptr noundef nonnull %4) #17
  %8 = load ptr, ptr %4, align 8, !tbaa !62
  %9 = icmp eq ptr %8, null
  %brmerge.not = and i1 %2, %9
  br i1 %brmerge.not, label %10, label %pmix_obj_new_tma.exit

10:                                               ; preds = %3
  %11 = load i64, ptr getelementptr inbounds nuw (i8, ptr @pmix_proc_data_t_class, i64 56), align 8, !tbaa !71
  br i1 %.not.i, label %15, label %12

12:                                               ; preds = %10
  %13 = load ptr, ptr %5, align 8, !tbaa !39
  %14 = call ptr %13(ptr noundef nonnull %5, i64 noundef %11) #17
  br label %pmix_tma_malloc.exit.i

15:                                               ; preds = %10
  %16 = call noalias ptr @malloc(i64 noundef %11) #18
  br label %pmix_tma_malloc.exit.i

pmix_tma_malloc.exit.i:                           ; preds = %15, %12
  %.0.i.i = phi ptr [ %14, %12 ], [ %16, %15 ]
  %17 = load i32, ptr @pmix_class_init_epoch, align 4, !tbaa !73
  %18 = load i32, ptr getelementptr inbounds nuw (i8, ptr @pmix_proc_data_t_class, i64 32), align 8, !tbaa !74
  %.not.i9 = icmp eq i32 %17, %18
  br i1 %.not.i9, label %20, label %19

19:                                               ; preds = %pmix_tma_malloc.exit.i
  call void @pmix_class_initialize(ptr noundef nonnull @pmix_proc_data_t_class) #17
  br label %20

20:                                               ; preds = %19, %pmix_tma_malloc.exit.i
  %.not22.i = icmp eq ptr %.0.i.i, null
  br i1 %.not22.i, label %pmix_obj_new_tma.exit, label %21

21:                                               ; preds = %20
  %22 = call i32 @pthread_mutex_init(ptr noundef nonnull %.0.i.i, ptr noundef null) #17
  %23 = getelementptr inbounds nuw i8, ptr %.0.i.i, i64 40
  store ptr @pmix_proc_data_t_class, ptr %23, align 8, !tbaa !75
  %24 = getelementptr inbounds nuw i8, ptr %.0.i.i, i64 48
  store i32 1, ptr %24, align 8, !tbaa !76
  %25 = getelementptr inbounds nuw i8, ptr %.0.i.i, i64 56
  br i1 %.not.i, label %26, label %28

26:                                               ; preds = %21
  %27 = getelementptr inbounds nuw i8, ptr %.0.i.i, i64 96
  call void @llvm.memset.p0.i64(ptr noundef nonnull align 8 dereferenceable(32) %25, i8 0, i64 32, i1 false)
  call void @llvm.memset.p0.i64(ptr noundef nonnull align 8 dereferenceable(24) %27, i8 0, i64 24, i1 false)
  br label %29

28:                                               ; preds = %21
  call void @llvm.memcpy.p0.p0.i64(ptr noundef nonnull align 8 dereferenceable(64) %25, ptr noundef nonnull align 8 dereferenceable(64) %5, i64 64, i1 false), !tbaa.struct !77
  br label %29

29:                                               ; preds = %28, %26
  %30 = load ptr, ptr getelementptr inbounds nuw (i8, ptr @pmix_proc_data_t_class, i64 40), align 8, !tbaa !78
  %31 = load ptr, ptr %30, align 8, !tbaa !62
  %.not6.i.i = icmp eq ptr %31, null
  br i1 %.not6.i.i, label %.loopexit, label %.lr.ph.i.i

.lr.ph.i.i:                                       ; preds = %29, %.lr.ph.i.i
  %32 = phi ptr [ %34, %.lr.ph.i.i ], [ %31, %29 ]
  %.07.i.i = phi ptr [ %33, %.lr.ph.i.i ], [ %30, %29 ]
  call void %32(ptr noundef nonnull %.0.i.i) #17
  %33 = getelementptr inbounds nuw i8, ptr %.07.i.i, i64 8
  %34 = load ptr, ptr %33, align 8, !tbaa !62
  %.not.i23.i = icmp eq ptr %34, null
  br i1 %.not.i23.i, label %.loopexit, label %.lr.ph.i.i, !llvm.loop !79

.loopexit:                                        ; preds = %.lr.ph.i.i, %29
  store ptr %.0.i.i, ptr %4, align 8, !tbaa !62
  %35 = call i32 @pmix_hash_table_set_value_uint32(ptr noundef %0, i32 noundef %1, ptr noundef nonnull %.0.i.i) #17
  %.pre = load ptr, ptr %4, align 8, !tbaa !62
  br label %pmix_obj_new_tma.exit

pmix_obj_new_tma.exit:                            ; preds = %20, %.loopexit, %3
  %.0 = phi ptr [ %8, %3 ], [ %.pre, %.loopexit ], [ null, %20 ]
  call void @llvm.lifetime.end.p0(i64 8, ptr nonnull %4) #17
  ret ptr %.0
}